target datalayout = "e-m:e-p270:32:32-p271:32:32-p272:64:64-i64:64-i128:128-f80:128-n8:16:32:64-S128"
target triple = "x86_64-pc-linux-gnu"

%struct.sp_int = type { i16, i16, [129 x i64] }
%struct.sp_int_minimal = type { i16, i16, [1 x i64] }

; Function Attrs: nounwind uwtable
define internal void @_sp_set(ptr noundef %0, i64 noundef %1) #0 {
  %3 = alloca ptr, align 8
  %4 = alloca i64, align 8
  %5 = alloca ptr, align 8
  store ptr %0, ptr %3, align 8, !tbaa !3
  store i64 %1, ptr %4, align 8, !tbaa !16
  call void @llvm.lifetime.start.p0(i64 8, ptr %5) #8
  %6 = load ptr, ptr %3, align 8, !tbaa !3
  store ptr %6, ptr %5, align 8, !tbaa !10
  %7 = load i64, ptr %4, align 8, !tbaa !16
  %8 = load ptr, ptr %5, align 8, !tbaa !10
  %9 = getelementptr inbounds nuw %struct.sp_int_minimal, ptr %8, i32 0, i32 2
  %10 = getelementptr inbounds [1 x i64], ptr %9, i64 0, i64 0
  store i64 %7, ptr %10, align 8, !tbaa !16
  %11 = load i64, ptr %4, align 8, !tbaa !16
  %12 = icmp ugt i64 %11, 0
  %13 = zext i1 %12 to i32
  %14 = trunc i32 %13 to i16
  %15 = load ptr, ptr %5, align 8, !tbaa !10
  %16 = getelementptr inbounds nuw %struct.sp_int_minimal, ptr %15, i32 0, i32 0
  store i16 %14, ptr %16, align 8, !tbaa !20
  call void @llvm.lifetime.end.p0(i64 8, ptr %5) #8
  ret void
}

; Function Attrs: nounwind uwtable
define i32 @sp_mod(ptr noundef %0, ptr noundef %1, ptr noundef %2) #0 {
  %4 = alloca ptr, align 8
  %5 = alloca ptr, align 8
  %6 = alloca ptr, align 8
  %7 = alloca i32, align 4
  store ptr %0, ptr %4, align 8, !tbaa !3
  store ptr %1, ptr %5, align 8, !tbaa !3
  store ptr %2, ptr %6, align 8, !tbaa !3
  call void @llvm.lifetime.start.p0(i64 4, ptr %7) #8
  store i32 0, ptr %7, align 4, !tbaa !8
  %8 = load ptr, ptr %4, align 8, !tbaa !3
  %9 = icmp eq ptr %8, null
  br i1 %9, label %16, label %10

10:                                               ; preds = %3
  %11 = load ptr, ptr %5, align 8, !tbaa !3
  %12 = icmp eq ptr %11, null
  br i1 %12, label %16, label %13

13:                                               ; preds = %10
  %14 = load ptr, ptr %6, align 8, !tbaa !3
  %15 = icmp eq ptr %14, null
  br i1 %15, label %16, label %17

16:                                               ; preds = %13, %10, %3
  store i32 -98, ptr %7, align 4, !tbaa !8
  br label %25

17:                                               ; preds = %13
  %18 = load ptr, ptr %4, align 8, !tbaa !3
  %19 = getelementptr inbounds nuw %struct.sp_int, ptr %18, i32 0, i32 0
  %20 = load i16, ptr %19, align 8, !tbaa !15
  %21 = zext i16 %20 to i32
  %22 = icmp sge i32 %21, 129
  br i1 %22, label %23, label %24

23:                                               ; preds = %17
  store i32 -98, ptr %7, align 4, !tbaa !8
  br label %24

24:                                               ; preds = %23, %17
  br label %25

25:                                               ; preds = %24, %16
  %26 = load i32, ptr %7, align 4, !tbaa !8
  %27 = icmp eq i32 %26, 0
  br i1 %27, label %28, label %33

28:                                               ; preds = %25
  %29 = load ptr, ptr %4, align 8, !tbaa !3
  %30 = load ptr, ptr %5, align 8, !tbaa !3
  %31 = load ptr, ptr %6, align 8, !tbaa !3
  %32 = call i32 @sp_div(ptr noundef %29, ptr noundef %30, ptr noundef null, ptr noundef %31)
  store i32 %32, ptr %7, align 4, !tbaa !8
  br label %33

33:                                               ; preds = %28, %25
  %34 = load i32, ptr %7, align 4, !tbaa !8
  call void @llvm.lifetime.end.p0(i64 4, ptr %7) #8
  ret i32 %34
}

; Function Attrs: nounwind uwtable
define internal i32 @_sp_cmp_abs(ptr noundef %0, ptr noundef %1) #0 {
  %3 = alloca ptr, align 8
  %4 = alloca ptr, align 8
  %5 = alloca i32, align 4
  %6 = alloca i32, align 4
  store ptr %0, ptr %3, align 8, !tbaa !3
  store ptr %1, ptr %4, align 8, !tbaa !3
  call void @llvm.lifetime.start.p0(i64 4, ptr %5) #8
  store i32 0, ptr %5, align 4, !tbaa !8
  %7 = load ptr, ptr %3, align 8, !tbaa !3
  %8 = getelementptr inbounds nuw %struct.sp_int, ptr %7, i32 0, i32 0
  %9 = load i16, ptr %8, align 8, !tbaa !15
  %10 = zext i16 %9 to i32
  %11 = load ptr, ptr %4, align 8, !tbaa !3
  %12 = getelementptr inbounds nuw %struct.sp_int, ptr %11, i32 0, i32 0
  %13 = load i16, ptr %12, align 8, !tbaa !15
  %14 = zext i16 %13 to i32
  %15 = icmp sgt i32 %10, %14
  br i1 %15, label %16, label %17

16:                                               ; preds = %2
  store i32 1, ptr %5, align 4, !tbaa !8
  br label %74

17:                                               ; preds = %2
  %18 = load ptr, ptr %3, align 8, !tbaa !3
  %19 = getelementptr inbounds nuw %struct.sp_int, ptr %18, i32 0, i32 0
  %20 = load i16, ptr %19, align 8, !tbaa !15
  %21 = zext i16 %20 to i32
  %22 = load ptr, ptr %4, align 8, !tbaa !3
  %23 = getelementptr inbounds nuw %struct.sp_int, ptr %22, i32 0, i32 0
  %24 = load i16, ptr %23, align 8, !tbaa !15
  %25 = zext i16 %24 to i32
  %26 = icmp slt i32 %21, %25
  br i1 %26, label %27, label %28

27:                                               ; preds = %17
  store i32 -1, ptr %5, align 4, !tbaa !8
  br label %73

28:                                               ; preds = %17
  call void @llvm.lifetime.start.p0(i64 4, ptr %6) #8
  %29 = load ptr, ptr %3, align 8, !tbaa !3
  %30 = getelementptr inbounds nuw %struct.sp_int, ptr %29, i32 0, i32 0
  %31 = load i16, ptr %30, align 8, !tbaa !15
  %32 = zext i16 %31 to i32
  %33 = sub nsw i32 %32, 1
  store i32 %33, ptr %6, align 4, !tbaa !8
  br label %34

34:                                               ; preds = %69, %28
  %35 = load i32, ptr %6, align 4, !tbaa !8
  %36 = icmp sge i32 %35, 0
  br i1 %36, label %37, label %72

37:                                               ; preds = %34
  %38 = load ptr, ptr %3, align 8, !tbaa !3
  %39 = getelementptr inbounds nuw %struct.sp_int, ptr %38, i32 0, i32 2
  %40 = load i32, ptr %6, align 4, !tbaa !8
  %41 = sext i32 %40 to i64
  %42 = getelementptr inbounds [129 x i64], ptr %39, i64 0, i64 %41
  %43 = load i64, ptr %42, align 8, !tbaa !16
  %44 = load ptr, ptr %4, align 8, !tbaa !3
  %45 = getelementptr inbounds nuw %struct.sp_int, ptr %44, i32 0, i32 2
  %46 = load i32, ptr %6, align 4, !tbaa !8
  %47 = sext i32 %46 to i64
  %48 = getelementptr inbounds [129 x i64], ptr %45, i64 0, i64 %47
  %49 = load i64, ptr %48, align 8, !tbaa !16
  %50 = icmp ugt i64 %43, %49
  br i1 %50, label %51, label %52

51:                                               ; preds = %37
  store i32 1, ptr %5, align 4, !tbaa !8
  br label %72

52:                                               ; preds = %37
  %53 = load ptr, ptr %3, align 8, !tbaa !3
  %54 = getelementptr inbounds nuw %struct.sp_int, ptr %53, i32 0, i32 2
  %55 = load i32, ptr %6, align 4, !tbaa !8
  %56 = sext i32 %55 to i64
  %57 = getelementptr inbounds [129 x i64], ptr %54, i64 0, i64 %56
  %58 = load i64, ptr %57, align 8, !tbaa !16
  %59 = load ptr, ptr %4, align 8, !tbaa !3
  %60 = getelementptr inbounds nuw %struct.sp_int, ptr %59, i32 0, i32 2
  %61 = load i32, ptr %6, align 4, !tbaa !8
  %62 = sext i32 %61 to i64
  %63 = getelementptr inbounds [129 x i64], ptr %60, i64 0, i64 %62
  %64 = load i64, ptr %63, align 8, !tbaa !16
  %65 = icmp ult i64 %58, %64
  br i1 %65, label %66, label %67

66:                                               ; preds = %52
  store i32 -1, ptr %5, align 4, !tbaa !8
  br label %72

67:                                               ; preds = %52
  br label %68

68:                                               ; preds = %67
  br label %69

69:                                               ; preds = %68
  %70 = load i32, ptr %6, align 4, !tbaa !8
  %71 = add nsw i32 %70, -1
  store i32 %71, ptr %6, align 4, !tbaa !8
  br label %34, !llvm.loop !36

72:                                               ; preds = %66, %51, %34
  call void @llvm.lifetime.end.p0(i64 4, ptr %6) #8
  br label %73

73:                                               ; preds = %72, %27
  br label %74

74:                                               ; preds = %73, %16
  %75 = load i32, ptr %5, align 4, !tbaa !8
  call void @llvm.lifetime.end.p0(i64 4, ptr %5) #8
  ret i32 %75
}

; Function Attrs: nounwind uwtable
define i32 @sp_invmod(ptr noundef %0, ptr noundef %1, ptr noundef %2) #0 {
  %4 = alloca ptr, align 8
  %5 = alloca ptr, align 8
  %6 = alloca ptr, align 8
  %7 = alloca i32, align 4
  store ptr %0, ptr %4, align 8, !tbaa !3
  store ptr %1, ptr %5, align 8, !tbaa !3
  store ptr %2, ptr %6, align 8, !tbaa !3
  call void @llvm.lifetime.start.p0(i64 4, ptr %7) #8
  store i32 0, ptr %7, align 4, !tbaa !8
  %8 = load ptr, ptr %4, align 8, !tbaa !3
  %9 = icmp eq ptr %8, null
  br i1 %9, label %20, label %10

10:                                               ; preds = %3
  %11 = load ptr, ptr %5, align 8, !tbaa !3
  %12 = icmp eq ptr %11, null
  br i1 %12, label %20, label %13

13:                                               ; preds = %10
  %14 = load ptr, ptr %6, align 8, !tbaa !3
  %15 = icmp eq ptr %14, null
  br i1 %15, label %20, label %16

16:                                               ; preds = %13
  %17 = load ptr, ptr %6, align 8, !tbaa !3
  %18 = load ptr, ptr %5, align 8, !tbaa !3
  %19 = icmp eq ptr %17, %18
  br i1 %19, label %20, label %21

20:                                               ; preds = %16, %13, %10, %3
  store i32 -98, ptr %7, align 4, !tbaa !8
  br label %21

21:                                               ; preds = %20, %16
  %22 = load i32, ptr %7, align 4, !tbaa !8
  %23 = icmp eq i32 %22, 0
  br i1 %23, label %24, label %36

24:                                               ; preds = %21
  %25 = load ptr, ptr %5, align 8, !tbaa !3
  %26 = getelementptr inbounds nuw %struct.sp_int, ptr %25, i32 0, i32 0
  %27 = load i16, ptr %26, align 8, !tbaa !15
  %28 = zext i16 %27 to i32
  %29 = mul nsw i32 %28, 2
  %30 = load ptr, ptr %6, align 8, !tbaa !3
  %31 = getelementptr inbounds nuw %struct.sp_int, ptr %30, i32 0, i32 1
  %32 = load i16, ptr %31, align 2, !tbaa !12
  %33 = zext i16 %32 to i32
  %34 = icmp sgt i32 %29, %33
  br i1 %34, label %35, label %36

35:                                               ; preds = %24
  store i32 -98, ptr %7, align 4, !tbaa !8
  br label %36

36:                                               ; preds = %35, %24, %21
  %37 = load i32, ptr %7, align 4, !tbaa !8
  %38 = icmp eq i32 %37, 0
  br i1 %38, label %39, label %51

39:                                               ; preds = %36
  %40 = load ptr, ptr %4, align 8, !tbaa !3
  %41 = load ptr, ptr %5, align 8, !tbaa !3
  %42 = call i32 @_sp_cmp_abs(ptr noundef %40, ptr noundef %41)
  %43 = icmp ne i32 %42, -1
  br i1 %43, label %44, label %50

44:                                               ; preds = %39
  %45 = load ptr, ptr %4, align 8, !tbaa !3
  %46 = load ptr, ptr %5, align 8, !tbaa !3
  %47 = load ptr, ptr %6, align 8, !tbaa !3
  %48 = call i32 @sp_mod(ptr noundef %45, ptr noundef %46, ptr noundef %47)
  store i32 %48, ptr %7, align 4, !tbaa !8
  %49 = load ptr, ptr %6, align 8, !tbaa !3
  store ptr %49, ptr %4, align 8, !tbaa !3
  br label %50

50:                                               ; preds = %44, %39
  br label %51

51:                                               ; preds = %50, %36
  %52 = load i32, ptr %7, align 4, !tbaa !8
  %53 = icmp eq i32 %52, 0
  br i1 %53, label %54, label %67

54:                                               ; preds = %51
  %55 = load ptr, ptr %4, align 8, !tbaa !3
  %56 = getelementptr inbounds nuw %struct.sp_int, ptr %55, i32 0, i32 0
  %57 = load i16, ptr %56, align 8, !tbaa !15
  %58 = zext i16 %57 to i32
  %59 = icmp eq i32 %58, 0
  br i1 %59, label %66, label %60

60:                                               ; preds = %54
  %61 = load ptr, ptr %5, align 8, !tbaa !3
  %62 = getelementptr inbounds nuw %struct.sp_int, ptr %61, i32 0, i32 0
  %63 = load i16, ptr %62, align 8, !tbaa !15
  %64 = zext i16 %63 to i32
  %65 = icmp eq i32 %64, 0
  br i1 %65, label %66, label %67

66:                                               ; preds = %60, %54
  store i32 -98, ptr %7, align 4, !tbaa !8
  br label %67

67:                                               ; preds = %66, %60, %51
  %68 = load i32, ptr %7, align 4, !tbaa !8
  %69 = icmp eq i32 %68, 0
  br i1 %69, label %70, label %97

70:                                               ; preds = %67
  %71 = load ptr, ptr %4, align 8, !tbaa !3
  %72 = getelementptr inbounds nuw %struct.sp_int, ptr %71, i32 0, i32 0
  %73 = load i16, ptr %72, align 8, !tbaa !15
  %74 = zext i16 %73 to i32
  %75 = icmp ne i32 %74, 0
  br i1 %75, label %76, label %97

76:                                               ; preds = %70
  %77 = load ptr, ptr %4, align 8, !tbaa !3
  %78 = getelementptr inbounds nuw %struct.sp_int, ptr %77, i32 0, i32 2
  %79 = getelementptr inbounds [129 x i64], ptr %78, i64 0, i64 0
  %80 = load i64, ptr %79, align 8, !tbaa !16
  %81 = and i64 %80, 1
  %82 = icmp eq i64 %81, 0
  br i1 %82, label %83, label %97

83:                                               ; preds = %76
  %84 = load ptr, ptr %5, align 8, !tbaa !3
  %85 = getelementptr inbounds nuw %struct.sp_int, ptr %84, i32 0, i32 0
  %86 = load i16, ptr %85, align 8, !tbaa !15
  %87 = zext i16 %86 to i32
  %88 = icmp ne i32 %87, 0
  br i1 %88, label %89, label %97

89:                                               ; preds = %83
  %90 = load ptr, ptr %5, align 8, !tbaa !3
  %91 = getelementptr inbounds nuw %struct.sp_int, ptr %90, i32 0, i32 2
  %92 = getelementptr inbounds [129 x i64], ptr %91, i64 0, i64 0
  %93 = load i64, ptr %92, align 8, !tbaa !16
  %94 = and i64 %93, 1
  %95 = icmp eq i64 %94, 0
  br i1 %95, label %96, label %97

96:                                               ; preds = %89
  store i32 -98, ptr %7, align 4, !tbaa !8
  br label %97

97:                                               ; preds = %96, %89, %83, %76, %70, %67
  %98 = load i32, ptr %7, align 4, !tbaa !8
  %99 = icmp eq i32 %98, 0
  br i1 %99, label %100, label %114

100:                                              ; preds = %97
  %101 = load ptr, ptr %4, align 8, !tbaa !3
  %102 = getelementptr inbounds nuw %struct.sp_int, ptr %101, i32 0, i32 0
  %103 = load i16, ptr %102, align 8, !tbaa !15
  %104 = zext i16 %103 to i32
  %105 = icmp eq i32 %104, 1
  br i1 %105, label %106, label %114

106:                                              ; preds = %100
  %107 = load ptr, ptr %4, align 8, !tbaa !3
  %108 = getelementptr inbounds nuw %struct.sp_int, ptr %107, i32 0, i32 2
  %109 = getelementptr inbounds [129 x i64], ptr %108, i64 0, i64 0
  %110 = load i64, ptr %109, align 8, !tbaa !16
  %111 = icmp eq i64 %110, 1
  br i1 %111, label %112, label %114

112:                                              ; preds = %106
  %113 = load ptr, ptr %6, align 8, !tbaa !3
  call void @_sp_set(ptr noundef %113, i64 noundef 1)
  br label %123

114:                                              ; preds = %106, %100, %97
  %115 = load i32, ptr %7, align 4, !tbaa !8
  %116 = icmp eq i32 %115, 0
  br i1 %116, label %117, label %122

117:                                              ; preds = %114
  %118 = load ptr, ptr %4, align 8, !tbaa !3
  %119 = load ptr, ptr %5, align 8, !tbaa !3
  %120 = load ptr, ptr %6, align 8, !tbaa !3
  %121 = call i32 @_sp_invmod(ptr noundef %118, ptr noundef %119, ptr noundef %120)
  store i32 %121, ptr %7, align 4, !tbaa !8
  br label %122

122:                                              ; preds = %117, %114
  br label %123

123:                                              ; preds = %122, %112
  %124 = load i32, ptr %7, align 4, !tbaa !8
  call void @llvm.lifetime.end.p0(i64 4, ptr %7) #8
  ret i32 %124
}