; Function Attrs: nofree norecurse nosync nounwind memory(readwrite, inaccessiblemem: none) uwtable
define range(i32 -98, 1) i32 @sp_invmod(ptr noundef captures(address) %0, ptr noundef captures(address) %1, ptr noundef captures(address) %2) local_unnamed_addr #11 {
  %4 = icmp ne ptr %0, null
  %5 = icmp ne ptr %1, null
  %or.cond.not78 = and i1 %4, %5
  %6 = icmp ne ptr %2, null
  %7 = icmp ne ptr %2, %1
  %.not75 = and i1 %or.cond.not78, %7
  %or.cond39.not = and i1 %6, %.not75
  br i1 %or.cond39.not, label %8, label %.critedge

8:                                                ; preds = %3
  %9 = load i16, ptr %1, align 8, !tbaa !12
  %10 = zext i16 %9 to i32
  %11 = shl nuw nsw i32 %10, 1
  %12 = getelementptr inbounds nuw i8, ptr %2, i64 2
  %13 = load i16, ptr %12, align 2, !tbaa !10
  %14 = zext i16 %13 to i32
  %15 = icmp samesign ugt i32 %11, %14
  br i1 %15, label %.critedge, label %.thread

.thread:                                          ; preds = %8
  %16 = load i16, ptr %0, align 8, !tbaa !12
  %17 = icmp ugt i16 %16, %9
  br i1 %17, label %.loopexit, label %18

18:                                               ; preds = %.thread
  %19 = icmp ult i16 %16, %9
  br i1 %19, label %_sp_cmp_abs.exit.thread54, label %.preheader.i

.preheader.i:                                     ; preds = %18
  %20 = getelementptr inbounds nuw i8, ptr %0, i64 8
  %21 = getelementptr inbounds nuw i8, ptr %1, i64 8
  %22 = zext i16 %16 to i64
  br label %23

23:                                               ; preds = %31, %.preheader.i
  %indvars.iv.i = phi i64 [ %22, %.preheader.i ], [ %indvars.iv.next.i, %31 ]
  %indvars.iv.next.i = add nsw i64 %indvars.iv.i, -1
  %24 = icmp sgt i64 %indvars.iv.i, 0
  br i1 %24, label %25, label %.loopexit

25:                                               ; preds = %23
  %26 = getelementptr inbounds nuw [129 x i64], ptr %20, i64 0, i64 %indvars.iv.next.i
  %27 = load i64, ptr %26, align 8, !tbaa !8
  %28 = getelementptr inbounds nuw [129 x i64], ptr %21, i64 0, i64 %indvars.iv.next.i
  %29 = load i64, ptr %28, align 8, !tbaa !8
  %30 = icmp ugt i64 %27, %29
  br i1 %30, label %.loopexit, label %31

31:                                               ; preds = %25
  %32 = icmp ult i64 %27, %29
  br i1 %32, label %_sp_cmp_abs.exit.thread54, label %23, !llvm.loop !21

.loopexit:                                        ; preds = %25, %23, %.thread
  %33 = icmp ult i16 %16, 129
  br i1 %33, label %_sp_cmp_abs.exit, label %.critedge

_sp_cmp_abs.exit:                                 ; preds = %.loopexit
  %34 = tail call i32 @sp_div(ptr noundef nonnull %0, ptr noundef nonnull %1, ptr noundef null, ptr noundef nonnull %2)
  %35 = icmp eq i32 %34, 0
  br i1 %35, label %_sp_cmp_abs.exit._sp_cmp_abs.exit.thread54thread-pre-split_crit_edge, label %.critedge

_sp_cmp_abs.exit._sp_cmp_abs.exit.thread54thread-pre-split_crit_edge: ; preds = %_sp_cmp_abs.exit
  %.pr70.pre = load i16, ptr %2, align 8, !tbaa !12
  br label %_sp_cmp_abs.exit.thread54

_sp_cmp_abs.exit.thread54:                        ; preds = %31, %_sp_cmp_abs.exit._sp_cmp_abs.exit.thread54thread-pre-split_crit_edge, %18
  %.pr = phi i16 [ %16, %18 ], [ %.pr70.pre, %_sp_cmp_abs.exit._sp_cmp_abs.exit.thread54thread-pre-split_crit_edge ], [ %16, %31 ]
  %.03457 = phi ptr [ %0, %18 ], [ %2, %_sp_cmp_abs.exit._sp_cmp_abs.exit.thread54thread-pre-split_crit_edge ], [ %0, %31 ]
  %36 = icmp eq i16 %.pr, 0
  br i1 %36, label %.critedge, label %37

37:                                               ; preds = %_sp_cmp_abs.exit.thread54
  %38 = load i16, ptr %1, align 8, !tbaa !12
  %39 = icmp eq i16 %38, 0
  br i1 %39, label %.critedge, label %40

40:                                               ; preds = %37
  %41 = getelementptr inbounds nuw i8, ptr %.03457, i64 8
  %42 = load i64, ptr %41, align 8, !tbaa !8
  %43 = and i64 %42, 1
  %44 = icmp eq i64 %43, 0
  br i1 %44, label %45, label %50

45:                                               ; preds = %40
  %46 = getelementptr inbounds nuw i8, ptr %1, i64 8
  %47 = load i64, ptr %46, align 8, !tbaa !8
  %48 = and i64 %47, 1
  %49 = icmp eq i64 %48, 0
  br i1 %49, label %.critedge, label %50

50:                                               ; preds = %40, %45
  %51 = icmp eq i16 %.pr, 1
  %52 = icmp eq i64 %42, 1
  %or.cond = and i1 %51, %52
  br i1 %or.cond, label %53, label %.thread69

53:                                               ; preds = %50
  %54 = getelementptr inbounds nuw i8, ptr %2, i64 8
  store i64 1, ptr %54, align 8, !tbaa !8
  store i16 1, ptr %2, align 8, !tbaa !3
  br label %.critedge

.thread69:                                        ; preds = %50
  %55 = tail call fastcc i32 @_sp_invmod(ptr noundef nonnull %.03457, ptr noundef nonnull %1, ptr noundef nonnull %2)
  br label %.critedge

.critedge:                                        ; preds = %3, %45, %_sp_cmp_abs.exit.thread54, %37, %8, %.loopexit, %_sp_cmp_abs.exit, %.thread69, %53
  %.5 = phi i32 [ 0, %53 ], [ %55, %.thread69 ], [ %34, %_sp_cmp_abs.exit ], [ -98, %.loopexit ], [ -98, %8 ], [ -98, %37 ], [ -98, %_sp_cmp_abs.exit.thread54 ], [ -98, %45 ], [ -98, %3 ]
  ret i32 %.5
}